; ModuleID = '43/642.c'
source_filename = "43/642.c"
target datalayout = "e-m:e-p270:32:32-p271:32:32-p272:64:64-i64:64-f80:128-n8:16:32:64-S128"
target triple = "x86_64-pc-linux-gnu"

@.str = private unnamed_addr constant [3 x i8] c"%d\00", align 1
@.str.1 = private unnamed_addr constant [7 x i8] c"%d %d\0A\00", align 1

; Function Attrs: noinline nounwind uwtable
define dso_local i32 @main() #0 {
  %1 = alloca i32, align 4
  %2 = alloca i32, align 4
  %3 = alloca i32, align 4
  %4 = alloca i32, align 4
  %5 = alloca i32, align 4
  %6 = alloca i32, align 4
  store i32 0, i32* %1, align 4
  %7 = call i32 (i8*, ...) @__isoc99_scanf(i8* getelementptr inbounds ([3 x i8], [3 x i8]* @.str, i64 0, i64 0), i32* %2)
  store i32 3, i32* %3, align 4
  br label %8

8:                                                ; preds = %72, %0
  %9 = load i32, i32* %3, align 4
  %10 = load i32, i32* %2, align 4
  %11 = sdiv i32 %10, 2
  %12 = icmp sle i32 %9, %11
  br i1 %12, label %13, label %75

13:                                               ; preds = %8
  store i32 3, i32* %6, align 4
  br label %14

14:                                               ; preds = %28, %13
  %15 = load i32, i32* %6, align 4
  %16 = sitofp i32 %15 to double
  %17 = load i32, i32* %3, align 4
  %18 = sitofp i32 %17 to double
  %19 = call double @sqrt(double %18) #3
  %20 = fcmp ole double %16, %19
  br i1 %20, label %21, label %31

21:                                               ; preds = %14
  %22 = load i32, i32* %3, align 4
  %23 = load i32, i32* %6, align 4
  %24 = srem i32 %22, %23
  %25 = icmp eq i32 %24, 0
  br i1 %25, label %26, label %27

26:                                               ; preds = %21
  br label %31

27:                                               ; preds = %21
  br label %28

28:                                               ; preds = %27
  %29 = load i32, i32* %6, align 4
  %30 = add nsw i32 %29, 2
  store i32 %30, i32* %6, align 4
  br label %14

31:                                               ; preds = %26, %14
  %32 = load i32, i32* %6, align 4
  %33 = sitofp i32 %32 to double
  %34 = load i32, i32* %3, align 4
  %35 = sitofp i32 %34 to double
  %36 = call double @sqrt(double %35) #3
  %37 = fcmp ogt double %33, %36
  br i1 %37, label %38, label %71

38:                                               ; preds = %31
  %39 = load i32, i32* %2, align 4
  %40 = load i32, i32* %3, align 4
  %41 = sub nsw i32 %39, %40
  store i32 %41, i32* %4, align 4
  store i32 3, i32* %5, align 4
  br label %42

42:                                               ; preds = %56, %38
  %43 = load i32, i32* %5, align 4
  %44 = sitofp i32 %43 to double
  %45 = load i32, i32* %4, align 4
  %46 = sitofp i32 %45 to double
  %47 = call double @sqrt(double %46) #3
  %48 = fcmp olt double %44, %47
  br i1 %48, label %49, label %59

49:                                               ; preds = %42
  %50 = load i32, i32* %4, align 4
  %51 = load i32, i32* %5, align 4
  %52 = srem i32 %50, %51
  %53 = icmp eq i32 %52, 0
  br i1 %53, label %54, label %55

54:                                               ; preds = %49
  br label %59

55:                                               ; preds = %49
  br label %56

56:                                               ; preds = %55
  %57 = load i32, i32* %5, align 4
  %58 = add nsw i32 %57, 2
  store i32 %58, i32* %5, align 4
  br label %42

59:                                               ; preds = %54, %42
  %60 = load i32, i32* %5, align 4
  %61 = sitofp i32 %60 to double
  %62 = load i32, i32* %4, align 4
  %63 = sitofp i32 %62 to double
  %64 = call double @sqrt(double %63) #3
  %65 = fcmp ogt double %61, %64
  br i1 %65, label %66, label %70

66:                                               ; preds = %59
  %67 = load i32, i32* %3, align 4
  %68 = load i32, i32* %4, align 4
  %69 = call i32 (i8*, ...) @printf(i8* getelementptr inbounds ([7 x i8], [7 x i8]* @.str.1, i64 0, i64 0), i32 %67, i32 %68)
  br label %70

70:                                               ; preds = %66, %59
  br label %71

71:                                               ; preds = %70, %31
  br label %72

72:                                               ; preds = %71
  %73 = load i32, i32* %3, align 4
  %74 = add nsw i32 %73, 2
  store i32 %74, i32* %3, align 4
  br label %8

75:                                               ; preds = %8
  ret i32 0
}

declare dso_local i32 @__isoc99_scanf(i8*, ...) #1

; Function Attrs: nounwind
declare dso_local double @sqrt(double) #2

declare dso_local i32 @printf(i8*, ...) #1


!llvm.module.flags = !{!0}
!llvm.ident = !{!1}

!0 = !{i32 1, !"wchar_size", i32 4}
!1 = !{!"clang version 10.0.0-4ubuntu1 "}
