; ModuleID = 'source-C-CXX/42/642.c'
source_filename = "source-C-CXX/42/642.c"
target datalayout = "e-m:e-p270:32:32-p271:32:32-p272:64:64-i64:64-f80:128-n8:16:32:64-S128"
target triple = "x86_64-pc-linux-gnu"

@.str = private unnamed_addr constant [3 x i8] c"%d\00", align 1
@.str.1 = private unnamed_addr constant [7 x i8] c"%d %d\0A\00", align 1

; Function Attrs: nofree nounwind sspstrong uwtable
define dso_local i32 @main() local_unnamed_addr #0 {
  %1 = alloca i32, align 4
  %2 = bitcast i32* %1 to i8*
  call void @llvm.lifetime.start.p0i8(i64 4, i8* nonnull %2) #4
  %3 = call i32 (i8*, ...) @__isoc99_scanf(i8* getelementptr inbounds ([3 x i8], [3 x i8]* @.str, i64 0, i64 0), i32* nonnull %1)
  %4 = load i32, i32* %1, align 4, !tbaa !5
  %5 = icmp slt i32 %4, 6
  br i1 %5, label %56, label %6

6:                                                ; preds = %0, %51
  %7 = phi i32 [ %52, %51 ], [ 3, %0 ]
  %8 = sitofp i32 %7 to double
  %9 = call double @sqrt(double %8) #4
  %10 = fcmp ult double %9, 3.000000e+00
  %11 = urem i32 %7, 3
  %12 = icmp eq i32 %11, 0
  %13 = select i1 %10, i1 true, i1 %12
  br i1 %13, label %23, label %14

14:                                               ; preds = %6, %19
  %15 = phi i32 [ %22, %19 ], [ 5, %6 ]
  %16 = sitofp i32 %15 to double
  %17 = call double @sqrt(double %8) #4
  %18 = fcmp ult double %17, %16
  br i1 %18, label %23, label %19, !llvm.loop !9

19:                                               ; preds = %14
  %20 = urem i32 %7, %15
  %21 = icmp eq i32 %20, 0
  %22 = add nuw nsw i32 %15, 2
  br i1 %21, label %23, label %14, !llvm.loop !9

23:                                               ; preds = %19, %14, %6
  %24 = phi double [ 3.000000e+00, %6 ], [ %16, %14 ], [ %16, %19 ]
  %25 = call double @sqrt(double %8) #4
  %26 = fcmp olt double %25, %24
  br i1 %26, label %27, label %51

27:                                               ; preds = %23
  %28 = load i32, i32* %1, align 4, !tbaa !5
  %29 = sub nsw i32 %28, %7
  %30 = sitofp i32 %29 to double
  %31 = call double @sqrt(double %30) #4
  %32 = fcmp ule double %31, 3.000000e+00
  %33 = srem i32 %29, 3
  %34 = icmp eq i32 %33, 0
  %35 = select i1 %32, i1 true, i1 %34
  br i1 %35, label %45, label %36

36:                                               ; preds = %27, %41
  %37 = phi i32 [ %44, %41 ], [ 5, %27 ]
  %38 = sitofp i32 %37 to double
  %39 = call double @sqrt(double %30) #4
  %40 = fcmp ogt double %39, %38
  br i1 %40, label %41, label %45, !llvm.loop !11

41:                                               ; preds = %36
  %42 = srem i32 %29, %37
  %43 = icmp eq i32 %42, 0
  %44 = add nuw nsw i32 %37, 2
  br i1 %43, label %45, label %36, !llvm.loop !11

45:                                               ; preds = %41, %36, %27
  %46 = phi double [ 3.000000e+00, %27 ], [ %38, %36 ], [ %38, %41 ]
  %47 = call double @sqrt(double %30) #4
  %48 = fcmp olt double %47, %46
  br i1 %48, label %49, label %51

49:                                               ; preds = %45
  %50 = call i32 (i8*, ...) @printf(i8* nonnull dereferenceable(1) getelementptr inbounds ([7 x i8], [7 x i8]* @.str.1, i64 0, i64 0), i32 %7, i32 %29)
  br label %51

51:                                               ; preds = %23, %49, %45
  %52 = add nuw nsw i32 %7, 2
  %53 = load i32, i32* %1, align 4, !tbaa !5
  %54 = sdiv i32 %53, 2
  %55 = icmp sgt i32 %52, %54
  br i1 %55, label %56, label %6, !llvm.loop !12

56:                                               ; preds = %51, %0
  call void @llvm.lifetime.end.p0i8(i64 4, i8* nonnull %2) #4
  ret i32 0
}

; Function Attrs: argmemonly mustprogress nofree nosync nounwind willreturn
declare void @llvm.lifetime.start.p0i8(i64 immarg, i8* nocapture) #1

; Function Attrs: nofree nounwind
declare noundef i32 @__isoc99_scanf(i8* nocapture noundef readonly, ...) local_unnamed_addr #2

; Function Attrs: mustprogress nofree nounwind willreturn
declare double @sqrt(double) local_unnamed_addr #3

; Function Attrs: nofree nounwind
declare noundef i32 @printf(i8* nocapture noundef readonly, ...) local_unnamed_addr #2

; Function Attrs: argmemonly mustprogress nofree nosync nounwind willreturn
declare void @llvm.lifetime.end.p0i8(i64 immarg, i8* nocapture) #1


!llvm.module.flags = !{!0, !1, !2, !3}
!llvm.ident = !{!4}

!0 = !{i32 1, !"wchar_size", i32 4}
!1 = !{i32 7, !"PIC Level", i32 2}
!2 = !{i32 7, !"PIE Level", i32 2}
!3 = !{i32 7, !"uwtable", i32 1}
!4 = !{!"clang version 13.0.0"}
!5 = !{!6, !6, i64 0}
!6 = !{!"int", !7, i64 0}
!7 = !{!"omnipotent char", !8, i64 0}
!8 = !{!"Simple C/C++ TBAA"}
!9 = distinct !{!9, !10}
!10 = !{!"llvm.loop.mustprogress"}
!11 = distinct !{!11, !10}
!12 = distinct !{!12, !10}
